target datalayout = "e-m:e-p270:32:32-p271:32:32-p272:64:64-i64:64-i128:128-f80:128-n8:16:32:64-S128"
target triple = "x86_64-unknown-linux-gnu"

%"struct.icu_75::UniProps" = type { i32, i32, [75 x i8], [25 x i32], [4 x i8], i32, i32, i32, i32, i32, i32, i32, ptr, ptr, ptr, %"class.icu_75::UnicodeString", %"class.icu_75::UnicodeString", %"class.icu_75::UnicodeString", %"class.icu_75::UnicodeString", %"class.icu_75::UnicodeSet" }
%"class.icu_75::UnicodeString" = type { %"class.icu_75::Replaceable", %"union.icu_75::UnicodeString::StackBufferOrFields" }
%"class.icu_75::Replaceable" = type { %"class.icu_75::UObject" }
%"class.icu_75::UObject" = type { ptr }
%"union.icu_75::UnicodeString::StackBufferOrFields" = type { %struct.anon.0, [32 x i8] }
%struct.anon.0 = type { i16, i32, i32, ptr }
%"class.icu_75::UnicodeSet" = type <{ %"class.icu_75::UnicodeFilter", ptr, i32, i32, i8, [7 x i8], ptr, ptr, i32, [4 x i8], ptr, i32, [4 x i8], ptr, ptr, [25 x i32], [4 x i8] }>
%"class.icu_75::UnicodeFilter" = type { %"class.icu_75::UnicodeFunctor", %"class.icu_75::UnicodeMatcher" }
%"class.icu_75::UnicodeFunctor" = type { %"class.icu_75::UObject" }
%"class.icu_75::UnicodeMatcher" = type { ptr }
%"class.icu_75::PreparsedUCD" = type { ptr, ptr, i32, i32, i32, i32, i32, ptr, ptr, [4 x i8], %"struct.icu_75::UniProps", %"struct.icu_75::UniProps", %"struct.icu_75::UniProps", %"class.icu_75::UnicodeSet", [3 x [4096 x i8]] }

; Function Attrs: mustprogress nounwind uwtable
define noundef ptr @_ZN6icu_7512PreparsedUCD9nextFieldEv(ptr noundef nonnull align 8 dereferenceable(14640) %this) #0 align 2 {
entry:
  %retval = alloca ptr, align 8
  %this.addr = alloca ptr, align 8
  %field = alloca ptr, align 8
  store ptr %this, ptr %this.addr, align 8
  %this1 = load ptr, ptr %this.addr, align 8
  %fieldLimit = getelementptr inbounds %"class.icu_75::PreparsedUCD", ptr %this1, i32 0, i32 7
  %0 = load ptr, ptr %fieldLimit, align 8
  %lineLimit = getelementptr inbounds %"class.icu_75::PreparsedUCD", ptr %this1, i32 0, i32 8
  %1 = load ptr, ptr %lineLimit, align 8
  %cmp = icmp eq ptr %0, %1
  br i1 %cmp, label %if.then, label %if.end

if.then:                                          ; preds = %entry
  store ptr null, ptr %retval, align 8
  br label %return

if.end:                                           ; preds = %entry
  %fieldLimit2 = getelementptr inbounds %"class.icu_75::PreparsedUCD", ptr %this1, i32 0, i32 7
  %2 = load ptr, ptr %fieldLimit2, align 8
  %add.ptr = getelementptr inbounds i8, ptr %2, i64 1
  store ptr %add.ptr, ptr %field, align 8
  %3 = load ptr, ptr %field, align 8
  %call = call noundef ptr @strchr(ptr noundef %3, i32 noundef 0) #13
  %fieldLimit3 = getelementptr inbounds %"class.icu_75::PreparsedUCD", ptr %this1, i32 0, i32 7
  store ptr %call, ptr %fieldLimit3, align 8
  %4 = load ptr, ptr %field, align 8
  store ptr %4, ptr %retval, align 8
  br label %return

return:                                           ; preds = %if.end, %if.then
  %5 = load ptr, ptr %retval, align 8
  ret ptr %5
}