; Function Attrs: mustprogress nofree nounwind willreturn memory(read, argmem: readwrite, inaccessiblemem: none) uwtable
define noundef ptr @_ZN6icu_7512PreparsedUCD9nextFieldEv(ptr nocapture noundef nonnull align 8 dereferenceable(14640) %this) local_unnamed_addr #15 align 2 {
entry:
  %fieldLimit = getelementptr inbounds i8, ptr %this, i64 40
  %0 = load ptr, ptr %fieldLimit, align 8
  %lineLimit = getelementptr inbounds i8, ptr %this, i64 48
  %1 = load ptr, ptr %lineLimit, align 8
  %cmp = icmp eq ptr %0, %1
  br i1 %cmp, label %return, label %if.end

if.end:                                           ; preds = %entry
  %add.ptr = getelementptr inbounds i8, ptr %0, i64 1
  %strlen = tail call i64 @strlen(ptr noundef nonnull dereferenceable(1) %add.ptr)
  %strchr = getelementptr inbounds i8, ptr %add.ptr, i64 %strlen
  store ptr %strchr, ptr %fieldLimit, align 8
  br label %return

return:                                           ; preds = %entry, %if.end
  %retval.0 = phi ptr [ %add.ptr, %if.end ], [ null, %entry ]
  ret ptr %retval.0
}